target datalayout = "e-m:e-p270:32:32-p271:32:32-p272:64:64-i64:64-i128:128-f80:128-n8:16:32:64-S128"
target triple = "x86_64-pc-linux-gnu"

%struct.H5VL_loc_params_t = type { i32, i32, %union.anon }
%union.anon = type { %struct.H5VL_loc_by_idx }
%struct.H5VL_loc_by_idx = type { ptr, i32, i32, i64, i64 }
%struct.H5VL_loc_by_name = type { ptr, i64 }
%struct.H5VL_optional_args_t = type { i32, ptr }
%union.H5VL_native_group_optional_args_t = type { %struct.H5VL_native_group_iterate_old_t }
%struct.H5VL_native_group_iterate_old_t = type { %struct.H5VL_loc_params_t, i64, ptr, ptr, ptr }

@H5_libinit_g = external global i8, align 1
@H5_libterm_g = external global i8, align 1
@.str = private unnamed_addr constant [103 x i8] c"generated/home/dtcxzyw/WorkSpace/Projects/compilers/llvm-opt-benchmark/bench/hdf5/hdf5/src/H5Gdeprec.c\00", align 1
@H5E_FUNC_g = external global i64, align 8
@H5E_CANTINIT_g = external global i64, align 8
@.str.1 = private unnamed_addr constant [30 x i8] c"library initialization failed\00", align 1
@H5E_CANTSET_g = external global i64, align 8
@.str.2 = private unnamed_addr constant [22 x i8] c"can't set API context\00", align 1
@H5E_ARGS_g = external global i64, align 8
@H5E_BADVALUE_g = external global i64, align 8
@H5E_BADTYPE_g = external global i64, align 8
@H5E_SYM_g = external global i64, align 8
@H5P_LST_DATASET_XFER_ID_g = external global i64, align 8
@H5P_LST_LINK_ACCESS_ID_g = external global i64, align 8
@.str.26 = private unnamed_addr constant [18 x i8] c"no name specified\00", align 1
@__func__.H5Giterate = private unnamed_addr constant [11 x i8] c"H5Giterate\00", align 1
@.str.31 = private unnamed_addr constant [24 x i8] c"invalid index specified\00", align 1
@.str.32 = private unnamed_addr constant [22 x i8] c"no operator specified\00", align 1
@H5E_ID_g = external global i64, align 8
@.str.33 = private unnamed_addr constant [19 x i8] c"invalid identifier\00", align 1
@H5E_BADITER_g = external global i64, align 8
@.str.34 = private unnamed_addr constant [35 x i8] c"error iterating over group's links\00", align 1

; Function Attrs: nounwind uwtable
define i32 @H5Giterate(i64 noundef %0, ptr noundef %1, ptr noundef %2, ptr noundef %3, ptr noundef %4) #0 {
  %6 = alloca i64, align 8
  %7 = alloca ptr, align 8
  %8 = alloca ptr, align 8
  %9 = alloca ptr, align 8
  %10 = alloca ptr, align 8
  %11 = alloca ptr, align 8
  %12 = alloca %struct.H5VL_optional_args_t, align 8
  %13 = alloca %union.H5VL_native_group_optional_args_t, align 8
  %14 = alloca i64, align 8
  %15 = alloca i32, align 4
  %16 = alloca i8, align 1
  %17 = alloca i8, align 1
  store i64 %0, ptr %6, align 8
  store ptr %1, ptr %7, align 8
  store ptr %2, ptr %8, align 8
  store ptr %3, ptr %9, align 8
  store ptr %4, ptr %10, align 8
  store i64 0, ptr %14, align 8
  store i8 0, ptr %16, align 1
  store i8 0, ptr %17, align 1
  %18 = load i8, ptr @H5_libinit_g, align 1
  %19 = trunc i8 %18 to i1
  br i1 %19, label %24, label %20

20:                                               ; preds = %5
  %21 = load i8, ptr @H5_libterm_g, align 1
  %22 = trunc i8 %21 to i1
  %23 = xor i1 %22, true
  br label %24

24:                                               ; preds = %20, %5
  %25 = phi i1 [ false, %5 ], [ %23, %20 ]
  %26 = xor i1 %25, true
  %27 = xor i1 %26, true
  %28 = zext i1 %27 to i32
  %29 = sext i32 %28 to i64
  %30 = icmp ne i64 %29, 0
  br i1 %30, label %31, label %55

31:                                               ; preds = %24
  %32 = call i32 @H5_init_library()
  %33 = icmp slt i32 %32, 0
  %34 = xor i1 %33, true
  %35 = xor i1 %34, true
  %36 = zext i1 %35 to i32
  %37 = sext i32 %36 to i64
  %38 = icmp ne i64 %37, 0
  br i1 %38, label %39, label %54

39:                                               ; preds = %31
  br label %40

40:                                               ; preds = %39
  br label %41

41:                                               ; preds = %40
  br label %42

42:                                               ; preds = %41
  %43 = load i64, ptr @H5E_FUNC_g, align 8
  %44 = load i64, ptr @H5E_CANTINIT_g, align 8
  %45 = call i32 (ptr, ptr, i32, i64, i64, ptr, ...) @H5E_printf_stack(ptr noundef @.str, ptr noundef @__func__.H5Giterate, i32 noundef 813, i64 noundef %43, i64 noundef %44, ptr noundef @.str.1)
  br label %46

46:                                               ; preds = %42
  store i8 1, ptr %17, align 1
  %47 = load i8, ptr %17, align 1
  %48 = trunc i8 %47 to i1
  %49 = zext i1 %48 to i8
  store i8 %49, ptr %17, align 1
  br label %50

50:                                               ; preds = %46
  br label %51

51:                                               ; preds = %50
  store i32 -1, ptr %15, align 4
  br label %211

52:                                               ; No predecessors!
  br label %53

53:                                               ; preds = %52
  br label %54

54:                                               ; preds = %53, %31
  br label %55

55:                                               ; preds = %54, %24
  %56 = call i32 @H5CX_push()
  %57 = icmp slt i32 %56, 0
  %58 = xor i1 %57, true
  %59 = xor i1 %58, true
  %60 = zext i1 %59 to i32
  %61 = sext i32 %60 to i64
  %62 = icmp ne i64 %61, 0
  br i1 %62, label %63, label %78

63:                                               ; preds = %55
  br label %64

64:                                               ; preds = %63
  br label %65

65:                                               ; preds = %64
  br label %66

66:                                               ; preds = %65
  %67 = load i64, ptr @H5E_FUNC_g, align 8
  %68 = load i64, ptr @H5E_CANTSET_g, align 8
  %69 = call i32 (ptr, ptr, i32, i64, i64, ptr, ...) @H5E_printf_stack(ptr noundef @.str, ptr noundef @__func__.H5Giterate, i32 noundef 813, i64 noundef %67, i64 noundef %68, ptr noundef @.str.2)
  br label %70

70:                                               ; preds = %66
  store i8 1, ptr %17, align 1
  %71 = load i8, ptr %17, align 1
  %72 = trunc i8 %71 to i1
  %73 = zext i1 %72 to i8
  store i8 %73, ptr %17, align 1
  br label %74

74:                                               ; preds = %70
  br label %75

75:                                               ; preds = %74
  store i32 -1, ptr %15, align 4
  br label %211

76:                                               ; No predecessors!
  br label %77

77:                                               ; preds = %76
  br label %79

78:                                               ; preds = %55
  store i8 1, ptr %16, align 1
  br label %79

79:                                               ; preds = %78, %77
  %80 = call i32 @H5E_clear_stack()
  %81 = load ptr, ptr %7, align 8
  %82 = icmp ne ptr %81, null
  br i1 %82, label %83, label %87

83:                                               ; preds = %79
  %84 = load ptr, ptr %7, align 8
  %85 = load i8, ptr %84, align 1
  %86 = icmp ne i8 %85, 0
  br i1 %86, label %102, label %87

87:                                               ; preds = %83, %79
  br label %88

88:                                               ; preds = %87
  br label %89

89:                                               ; preds = %88
  br label %90

90:                                               ; preds = %89
  %91 = load i64, ptr @H5E_ARGS_g, align 8
  %92 = load i64, ptr @H5E_BADVALUE_g, align 8
  %93 = call i32 (ptr, ptr, i32, i64, i64, ptr, ...) @H5E_printf_stack(ptr noundef @.str, ptr noundef @__func__.H5Giterate, i32 noundef 817, i64 noundef %91, i64 noundef %92, ptr noundef @.str.26)
  br label %94

94:                                               ; preds = %90
  store i8 1, ptr %17, align 1
  %95 = load i8, ptr %17, align 1
  %96 = trunc i8 %95 to i1
  %97 = zext i1 %96 to i8
  store i8 %97, ptr %17, align 1
  br label %98

98:                                               ; preds = %94
  br label %99

99:                                               ; preds = %98
  store i32 -1, ptr %15, align 4
  br label %211

100:                                              ; No predecessors!
  br label %101

101:                                              ; preds = %100
  br label %102

102:                                              ; preds = %101, %83
  %103 = load ptr, ptr %8, align 8
  %104 = icmp ne ptr %103, null
  br i1 %104, label %105, label %124

105:                                              ; preds = %102
  %106 = load ptr, ptr %8, align 8
  %107 = load i32, ptr %106, align 4
  %108 = icmp slt i32 %107, 0
  br i1 %108, label %109, label %124

109:                                              ; preds = %105
  br label %110

110:                                              ; preds = %109
  br label %111

111:                                              ; preds = %110
  br label %112

112:                                              ; preds = %111
  %113 = load i64, ptr @H5E_ARGS_g, align 8
  %114 = load i64, ptr @H5E_BADVALUE_g, align 8
  %115 = call i32 (ptr, ptr, i32, i64, i64, ptr, ...) @H5E_printf_stack(ptr noundef @.str, ptr noundef @__func__.H5Giterate, i32 noundef 819, i64 noundef %113, i64 noundef %114, ptr noundef @.str.31)
  br label %116

116:                                              ; preds = %112
  store i8 1, ptr %17, align 1
  %117 = load i8, ptr %17, align 1
  %118 = trunc i8 %117 to i1
  %119 = zext i1 %118 to i8
  store i8 %119, ptr %17, align 1
  br label %120

120:                                              ; preds = %116
  br label %121

121:                                              ; preds = %120
  store i32 -1, ptr %15, align 4
  br label %211

122:                                              ; No predecessors!
  br label %123

123:                                              ; preds = %122
  br label %124

124:                                              ; preds = %123, %105, %102
  %125 = load ptr, ptr %9, align 8
  %126 = icmp ne ptr %125, null
  br i1 %126, label %142, label %127

127:                                              ; preds = %124
  br label %128

128:                                              ; preds = %127
  br label %129

129:                                              ; preds = %128
  br label %130

130:                                              ; preds = %129
  %131 = load i64, ptr @H5E_ARGS_g, align 8
  %132 = load i64, ptr @H5E_BADVALUE_g, align 8
  %133 = call i32 (ptr, ptr, i32, i64, i64, ptr, ...) @H5E_printf_stack(ptr noundef @.str, ptr noundef @__func__.H5Giterate, i32 noundef 821, i64 noundef %131, i64 noundef %132, ptr noundef @.str.32)
  br label %134

134:                                              ; preds = %130
  store i8 1, ptr %17, align 1
  %135 = load i8, ptr %17, align 1
  %136 = trunc i8 %135 to i1
  %137 = zext i1 %136 to i8
  store i8 %137, ptr %17, align 1
  br label %138

138:                                              ; preds = %134
  br label %139

139:                                              ; preds = %138
  store i32 -1, ptr %15, align 4
  br label %211

140:                                              ; No predecessors!
  br label %141

141:                                              ; preds = %140
  br label %142

142:                                              ; preds = %141, %124
  %143 = load i64, ptr %6, align 8
  %144 = call ptr @H5VL_vol_object(i64 noundef %143)
  store ptr %144, ptr %11, align 8
  %145 = icmp eq ptr null, %144
  br i1 %145, label %146, label %161

146:                                              ; preds = %142
  br label %147

147:                                              ; preds = %146
  br label %148

148:                                              ; preds = %147
  br label %149

149:                                              ; preds = %148
  %150 = load i64, ptr @H5E_ID_g, align 8
  %151 = load i64, ptr @H5E_BADTYPE_g, align 8
  %152 = call i32 (ptr, ptr, i32, i64, i64, ptr, ...) @H5E_printf_stack(ptr noundef @.str, ptr noundef @__func__.H5Giterate, i32 noundef 825, i64 noundef %150, i64 noundef %151, ptr noundef @.str.33)
  br label %153

153:                                              ; preds = %149
  store i8 1, ptr %17, align 1
  %154 = load i8, ptr %17, align 1
  %155 = trunc i8 %154 to i1
  %156 = zext i1 %155 to i8
  store i8 %156, ptr %17, align 1
  br label %157

157:                                              ; preds = %153
  br label %158

158:                                              ; preds = %157
  store i32 -1, ptr %15, align 4
  br label %211

159:                                              ; No predecessors!
  br label %160

160:                                              ; preds = %159
  br label %161

161:                                              ; preds = %160, %142
  %162 = getelementptr inbounds %struct.H5VL_native_group_iterate_old_t, ptr %13, i32 0, i32 0
  %163 = getelementptr inbounds %struct.H5VL_loc_params_t, ptr %162, i32 0, i32 1
  store i32 1, ptr %163, align 4
  %164 = load ptr, ptr %7, align 8
  %165 = getelementptr inbounds %struct.H5VL_native_group_iterate_old_t, ptr %13, i32 0, i32 0
  %166 = getelementptr inbounds %struct.H5VL_loc_params_t, ptr %165, i32 0, i32 2
  %167 = getelementptr inbounds %struct.H5VL_loc_by_name, ptr %166, i32 0, i32 0
  store ptr %164, ptr %167, align 8
  %168 = load i64, ptr @H5P_LST_LINK_ACCESS_ID_g, align 8
  %169 = getelementptr inbounds %struct.H5VL_native_group_iterate_old_t, ptr %13, i32 0, i32 0
  %170 = getelementptr inbounds %struct.H5VL_loc_params_t, ptr %169, i32 0, i32 2
  %171 = getelementptr inbounds %struct.H5VL_loc_by_name, ptr %170, i32 0, i32 1
  store i64 %168, ptr %171, align 8
  %172 = load i64, ptr %6, align 8
  %173 = call i32 @H5I_get_type(i64 noundef %172)
  %174 = getelementptr inbounds %struct.H5VL_native_group_iterate_old_t, ptr %13, i32 0, i32 0
  %175 = getelementptr inbounds %struct.H5VL_loc_params_t, ptr %174, i32 0, i32 0
  store i32 %173, ptr %175, align 8
  %176 = load ptr, ptr %8, align 8
  %177 = icmp eq ptr %176, null
  br i1 %177, label %178, label %179

178:                                              ; preds = %161
  br label %182

179:                                              ; preds = %161
  %180 = load ptr, ptr %8, align 8
  %181 = load i32, ptr %180, align 4
  br label %182

182:                                              ; preds = %179, %178
  %183 = phi i32 [ 0, %178 ], [ %181, %179 ]
  %184 = sext i32 %183 to i64
  %185 = getelementptr inbounds %struct.H5VL_native_group_iterate_old_t, ptr %13, i32 0, i32 1
  store i64 %184, ptr %185, align 8
  %186 = getelementptr inbounds %struct.H5VL_native_group_iterate_old_t, ptr %13, i32 0, i32 2
  store ptr %14, ptr %186, align 8
  %187 = load ptr, ptr %9, align 8
  %188 = getelementptr inbounds %struct.H5VL_native_group_iterate_old_t, ptr %13, i32 0, i32 3
  store ptr %187, ptr %188, align 8
  %189 = load ptr, ptr %10, align 8
  %190 = getelementptr inbounds %struct.H5VL_native_group_iterate_old_t, ptr %13, i32 0, i32 4
  store ptr %189, ptr %190, align 8
  %191 = getelementptr inbounds %struct.H5VL_optional_args_t, ptr %12, i32 0, i32 0
  store i32 0, ptr %191, align 8
  %192 = getelementptr inbounds %struct.H5VL_optional_args_t, ptr %12, i32 0, i32 1
  store ptr %13, ptr %192, align 8
  %193 = load ptr, ptr %11, align 8
  %194 = load i64, ptr @H5P_LST_DATASET_XFER_ID_g, align 8
  %195 = call i32 @H5VL_group_optional(ptr noundef %193, ptr noundef %12, i64 noundef %194, ptr noundef null)
  store i32 %195, ptr %15, align 4
  %196 = icmp slt i32 %195, 0
  br i1 %196, label %197, label %203

197:                                              ; preds = %182
  br label %198

198:                                              ; preds = %197
  %199 = load i64, ptr @H5E_SYM_g, align 8
  %200 = load i64, ptr @H5E_BADITER_g, align 8
  %201 = call i32 (ptr, ptr, i32, i64, i64, ptr, ...) @H5E_printf_stack(ptr noundef @.str, ptr noundef @__func__.H5Giterate, i32 noundef 842, i64 noundef %199, i64 noundef %200, ptr noundef @.str.34)
  br label %202

202:                                              ; preds = %198
  br label %203

203:                                              ; preds = %202, %182
  %204 = load ptr, ptr %8, align 8
  %205 = icmp ne ptr %204, null
  br i1 %205, label %206, label %210

206:                                              ; preds = %203
  %207 = load i64, ptr %14, align 8
  %208 = trunc i64 %207 to i32
  %209 = load ptr, ptr %8, align 8
  store i32 %208, ptr %209, align 4
  br label %210

210:                                              ; preds = %206, %203
  br label %211

211:                                              ; preds = %210, %158, %139, %121, %99, %75, %51
  %212 = load i8, ptr %16, align 1
  %213 = trunc i8 %212 to i1
  %214 = xor i1 %213, true
  %215 = xor i1 %214, true
  %216 = zext i1 %215 to i32
  %217 = sext i32 %216 to i64
  %218 = icmp ne i64 %217, 0
  br i1 %218, label %219, label %221

219:                                              ; preds = %211
  %220 = call i32 @H5CX_pop(i1 noundef zeroext true)
  store i8 0, ptr %16, align 1
  br label %221

221:                                              ; preds = %219, %211
  %222 = load i8, ptr %17, align 1
  %223 = trunc i8 %222 to i1
  %224 = xor i1 %223, true
  %225 = xor i1 %224, true
  %226 = zext i1 %225 to i32
  %227 = sext i32 %226 to i64
  %228 = icmp ne i64 %227, 0
  br i1 %228, label %229, label %231

229:                                              ; preds = %221
  %230 = call i32 @H5E_dump_api_stack()
  br label %231

231:                                              ; preds = %229, %221
  %232 = load i32, ptr %15, align 4
  ret i32 %232
}