; Function Attrs: nounwind uwtable
define i32 @H5Giterate(i64 noundef %0, ptr noundef %1, ptr noundef %2, ptr noundef %3, ptr noundef %4) local_unnamed_addr #1 {
  %6 = alloca %struct.H5VL_optional_args_t, align 8
  %7 = alloca %union.H5VL_native_group_optional_args_t, align 8
  %8 = alloca i64, align 8
  store i64 0, ptr %8, align 8
  %9 = load i8, ptr @H5_libinit_g, align 1
  %10 = trunc i8 %9 to i1
  %11 = load i8, ptr @H5_libterm_g, align 1
  %12 = trunc i8 %11 to i1
  %13 = select i1 %10, i1 true, i1 %12
  br i1 %13, label %21, label %14

14:                                               ; preds = %5
  %15 = tail call i32 @H5_init_library() #4
  %16 = icmp slt i32 %15, 0
  br i1 %16, label %17, label %21

17:                                               ; preds = %14
  %18 = load i64, ptr @H5E_FUNC_g, align 8
  %19 = load i64, ptr @H5E_CANTINIT_g, align 8
  %20 = tail call i32 (ptr, ptr, i32, i64, i64, ptr, ...) @H5E_printf_stack(ptr noundef nonnull @.str, ptr noundef nonnull @__func__.H5Giterate, i32 noundef 813, i64 noundef %18, i64 noundef %19, ptr noundef nonnull @.str.1) #4
  br label %.thread40

21:                                               ; preds = %14, %5
  %22 = tail call i32 @H5CX_push() #4
  %23 = icmp slt i32 %22, 0
  br i1 %23, label %24, label %28

24:                                               ; preds = %21
  %25 = load i64, ptr @H5E_FUNC_g, align 8
  %26 = load i64, ptr @H5E_CANTSET_g, align 8
  %27 = tail call i32 (ptr, ptr, i32, i64, i64, ptr, ...) @H5E_printf_stack(ptr noundef nonnull @.str, ptr noundef nonnull @__func__.H5Giterate, i32 noundef 813, i64 noundef %25, i64 noundef %26, ptr noundef nonnull @.str.2) #4
  br label %.thread40

28:                                               ; preds = %21
  %29 = tail call i32 @H5E_clear_stack() #4
  %.not = icmp eq ptr %1, null
  br i1 %.not, label %32, label %30

30:                                               ; preds = %28
  %31 = load i8, ptr %1, align 1
  %.not29 = icmp eq i8 %31, 0
  br i1 %.not29, label %32, label %36

32:                                               ; preds = %28, %30
  %33 = load i64, ptr @H5E_ARGS_g, align 8
  %34 = load i64, ptr @H5E_BADVALUE_g, align 8
  %35 = tail call i32 (ptr, ptr, i32, i64, i64, ptr, ...) @H5E_printf_stack(ptr noundef nonnull @.str, ptr noundef nonnull @__func__.H5Giterate, i32 noundef 817, i64 noundef %33, i64 noundef %34, ptr noundef nonnull @.str.26) #4
  br label %.thread46

36:                                               ; preds = %30
  %.not30 = icmp eq ptr %2, null
  br i1 %.not30, label %44, label %37

37:                                               ; preds = %36
  %38 = load i32, ptr %2, align 4
  %39 = icmp slt i32 %38, 0
  br i1 %39, label %40, label %44

40:                                               ; preds = %37
  %41 = load i64, ptr @H5E_ARGS_g, align 8
  %42 = load i64, ptr @H5E_BADVALUE_g, align 8
  %43 = tail call i32 (ptr, ptr, i32, i64, i64, ptr, ...) @H5E_printf_stack(ptr noundef nonnull @.str, ptr noundef nonnull @__func__.H5Giterate, i32 noundef 819, i64 noundef %41, i64 noundef %42, ptr noundef nonnull @.str.31) #4
  br label %.thread46

44:                                               ; preds = %37, %36
  %.not31 = icmp eq ptr %3, null
  br i1 %.not31, label %45, label %49

45:                                               ; preds = %44
  %46 = load i64, ptr @H5E_ARGS_g, align 8
  %47 = load i64, ptr @H5E_BADVALUE_g, align 8
  %48 = tail call i32 (ptr, ptr, i32, i64, i64, ptr, ...) @H5E_printf_stack(ptr noundef nonnull @.str, ptr noundef nonnull @__func__.H5Giterate, i32 noundef 821, i64 noundef %46, i64 noundef %47, ptr noundef nonnull @.str.32) #4
  br label %.thread46

49:                                               ; preds = %44
  %50 = tail call ptr @H5VL_vol_object(i64 noundef %0) #4
  %51 = icmp eq ptr %50, null
  br i1 %51, label %52, label %56

52:                                               ; preds = %49
  %53 = load i64, ptr @H5E_ID_g, align 8
  %54 = load i64, ptr @H5E_BADTYPE_g, align 8
  %55 = tail call i32 (ptr, ptr, i32, i64, i64, ptr, ...) @H5E_printf_stack(ptr noundef nonnull @.str, ptr noundef nonnull @__func__.H5Giterate, i32 noundef 825, i64 noundef %53, i64 noundef %54, ptr noundef nonnull @.str.33) #4
  br label %.thread46

56:                                               ; preds = %49
  %57 = getelementptr inbounds i8, ptr %7, i64 4
  store i32 1, ptr %57, align 4
  %58 = getelementptr inbounds i8, ptr %7, i64 8
  store ptr %1, ptr %58, align 8
  %59 = load i64, ptr @H5P_LST_LINK_ACCESS_ID_g, align 8
  %60 = getelementptr inbounds i8, ptr %7, i64 16
  store i64 %59, ptr %60, align 8
  %61 = tail call i32 @H5I_get_type(i64 noundef %0) #4
  store i32 %61, ptr %7, align 8
  br i1 %.not30, label %65, label %62

62:                                               ; preds = %56
  %63 = load i32, ptr %2, align 4
  %64 = sext i32 %63 to i64
  br label %65

65:                                               ; preds = %56, %62
  %66 = phi i64 [ %64, %62 ], [ 0, %56 ]
  %67 = getelementptr inbounds i8, ptr %7, i64 40
  store i64 %66, ptr %67, align 8
  %68 = getelementptr inbounds i8, ptr %7, i64 48
  store ptr %8, ptr %68, align 8
  %69 = getelementptr inbounds i8, ptr %7, i64 56
  store ptr %3, ptr %69, align 8
  %70 = getelementptr inbounds i8, ptr %7, i64 64
  store ptr %4, ptr %70, align 8
  store i32 0, ptr %6, align 8
  %71 = getelementptr inbounds i8, ptr %6, i64 8
  store ptr %7, ptr %71, align 8
  %72 = load i64, ptr @H5P_LST_DATASET_XFER_ID_g, align 8
  %73 = call i32 @H5VL_group_optional(ptr noundef nonnull %50, ptr noundef nonnull %6, i64 noundef %72, ptr noundef null) #4
  %74 = icmp slt i32 %73, 0
  br i1 %74, label %75, label %79

75:                                               ; preds = %65
  %76 = load i64, ptr @H5E_SYM_g, align 8
  %77 = load i64, ptr @H5E_BADITER_g, align 8
  %78 = call i32 (ptr, ptr, i32, i64, i64, ptr, ...) @H5E_printf_stack(ptr noundef nonnull @.str, ptr noundef nonnull @__func__.H5Giterate, i32 noundef 842, i64 noundef %76, i64 noundef %77, ptr noundef nonnull @.str.34) #4
  br label %79

79:                                               ; preds = %75, %65
  br i1 %.not30, label %84, label %80

80:                                               ; preds = %79
  %81 = load i64, ptr %8, align 8
  %82 = trunc i64 %81 to i32
  store i32 %82, ptr %2, align 4
  br label %84

.thread46:                                        ; preds = %32, %45, %52, %40
  %83 = tail call i32 @H5CX_pop(i1 noundef zeroext true) #4
  br label %.thread40

84:                                               ; preds = %79, %80
  %85 = call i32 @H5CX_pop(i1 noundef zeroext true) #4
  br label %87

.thread40:                                        ; preds = %24, %17, %.thread46
  %86 = tail call i32 @H5E_dump_api_stack() #4
  br label %87

87:                                               ; preds = %84, %.thread40
  %.0243543 = phi i32 [ -1, %.thread40 ], [ %73, %84 ]
  ret i32 %.0243543
}